; Function Attrs: mustprogress uwtable
define internal void @"_ZNSt17_Function_handlerIFvillllEZN18OpenImageIO_v2_6_015parallel_for_2DEllllOSt8functionIFvllEENS1_6paroptEE3$_0E9_M_invokeERKSt9_Any_dataOiOlSD_SD_SD_"(ptr nocapture noundef nonnull readonly align 8 dereferenceable(16) %__functor, ptr nocapture nonnull readonly align 4 %__args, ptr nocapture noundef nonnull readonly align 8 dereferenceable(8) %__args1, ptr nocapture noundef nonnull readonly align 8 dereferenceable(8) %__args3, ptr nocapture noundef nonnull readonly align 8 dereferenceable(8) %__args5, ptr nocapture noundef nonnull readonly align 8 dereferenceable(8) %__args7) #4 align 2 {
entry:
  %__args.addr.i.i.i.i = alloca i64, align 8
  %__args.addr2.i.i.i.i = alloca i64, align 8
  %__args1.val = load i64, ptr %__args1, align 8
  %__args3.val = load i64, ptr %__args3, align 8
  %__args5.val = load i64, ptr %__args5, align 8
  %__args7.val = load i64, ptr %__args7, align 8
  %cmp7.i.i.i = icmp slt i64 %__args5.val, %__args7.val
  %cmp35.i.i.i = icmp slt i64 %__args1.val, %__args3.val
  %or.cond.i.i.i = and i1 %cmp35.i.i.i, %cmp7.i.i.i
  br i1 %or.cond.i.i.i, label %for.cond2.preheader.us.i.i.i, label %"_ZSt10__invoke_rIvRZN18OpenImageIO_v2_6_015parallel_for_2DEllllOSt8functionIFvllEENS0_6paroptEE3$_0JillllEENSt9enable_ifIX16is_invocable_r_vIT_T0_DpT1_EES9_E4typeEOSA_DpOSB_.exit"

for.cond2.preheader.us.i.i.i:                     ; preds = %entry, %for.cond2.for.inc5_crit_edge.us.i.i.i
  %y.08.us.i.i.i = phi i64 [ %inc6.us.i.i.i, %for.cond2.for.inc5_crit_edge.us.i.i.i ], [ %__args5.val, %entry ]
  br label %for.body4.us.i.i.i

for.body4.us.i.i.i:                               ; preds = %_ZNKSt8functionIFvllEEclEll.exit.us.i.i.i, %for.cond2.preheader.us.i.i.i
  %x.06.us.i.i.i = phi i64 [ %__args1.val, %for.cond2.preheader.us.i.i.i ], [ %inc.us.i.i.i, %_ZNKSt8functionIFvllEEclEll.exit.us.i.i.i ]
  %0 = load ptr, ptr %__functor, align 8
  call void @llvm.lifetime.start.p0(i64 8, ptr nonnull %__args.addr.i.i.i.i)
  call void @llvm.lifetime.start.p0(i64 8, ptr nonnull %__args.addr2.i.i.i.i)
  store i64 %x.06.us.i.i.i, ptr %__args.addr.i.i.i.i, align 8
  store i64 %y.08.us.i.i.i, ptr %__args.addr2.i.i.i.i, align 8
  %_M_manager.i.i.us.i.i.i = getelementptr inbounds i8, ptr %0, i64 16
  %1 = load ptr, ptr %_M_manager.i.i.us.i.i.i, align 8
  %tobool.not.i.i.us.i.i.i = icmp eq ptr %1, null
  br i1 %tobool.not.i.i.us.i.i.i, label %if.then.i.i.i.i, label %_ZNKSt8functionIFvllEEclEll.exit.us.i.i.i

_ZNKSt8functionIFvllEEclEll.exit.us.i.i.i:        ; preds = %for.body4.us.i.i.i
  %_M_invoker.i.us.i.i.i = getelementptr inbounds i8, ptr %0, i64 24
  %2 = load ptr, ptr %_M_invoker.i.us.i.i.i, align 8
  call void %2(ptr noundef nonnull align 8 dereferenceable(16) %0, ptr noundef nonnull align 8 dereferenceable(8) %__args.addr.i.i.i.i, ptr noundef nonnull align 8 dereferenceable(8) %__args.addr2.i.i.i.i)
  call void @llvm.lifetime.end.p0(i64 8, ptr nonnull %__args.addr.i.i.i.i)
  call void @llvm.lifetime.end.p0(i64 8, ptr nonnull %__args.addr2.i.i.i.i)
  %inc.us.i.i.i = add i64 %x.06.us.i.i.i, 1
  %exitcond.not.i.i.i = icmp eq i64 %inc.us.i.i.i, %__args3.val
  br i1 %exitcond.not.i.i.i, label %for.cond2.for.inc5_crit_edge.us.i.i.i, label %for.body4.us.i.i.i, !llvm.loop !220

for.cond2.for.inc5_crit_edge.us.i.i.i:            ; preds = %_ZNKSt8functionIFvllEEclEll.exit.us.i.i.i
  %inc6.us.i.i.i = add i64 %y.08.us.i.i.i, 1
  %exitcond10.not.i.i.i = icmp eq i64 %inc6.us.i.i.i, %__args7.val
  br i1 %exitcond10.not.i.i.i, label %"_ZSt10__invoke_rIvRZN18OpenImageIO_v2_6_015parallel_for_2DEllllOSt8functionIFvllEENS0_6paroptEE3$_0JillllEENSt9enable_ifIX16is_invocable_r_vIT_T0_DpT1_EES9_E4typeEOSA_DpOSB_.exit", label %for.cond2.preheader.us.i.i.i, !llvm.loop !221

if.then.i.i.i.i:                                  ; preds = %for.body4.us.i.i.i
  call void @_ZSt25__throw_bad_function_callv() #28
  unreachable

"_ZSt10__invoke_rIvRZN18OpenImageIO_v2_6_015parallel_for_2DEllllOSt8functionIFvllEENS0_6paroptEE3$_0JillllEENSt9enable_ifIX16is_invocable_r_vIT_T0_DpT1_EES9_E4typeEOSA_DpOSB_.exit": ; preds = %for.cond2.for.inc5_crit_edge.us.i.i.i, %entry
  ret void
}